target datalayout = "e-m:e-p270:32:32-p271:32:32-p272:64:64-i64:64-i128:128-f80:128-n8:16:32:64-S128"
target triple = "x86_64-pc-linux-gnu"

%"class.std::basic_ostream.base" = type { ptr }
%"class.google::base_logging::LogStreamBuf" = type { %"class.std::basic_streambuf" }
%"class.std::basic_streambuf" = type { ptr, ptr, ptr, ptr, ptr, ptr, ptr, %"class.std::locale" }
%"class.std::locale" = type { ptr }
%"class.std::basic_ios" = type { %"class.std::ios_base", ptr, i8, i8, ptr, ptr, ptr, ptr }
%"class.std::ios_base" = type { ptr, i64, i64, i32, i32, i32, ptr, %"struct.std::ios_base::_Words", [8 x %"struct.std::ios_base::_Words"], i32, ptr, %"class.std::locale" }
%"struct.std::ios_base::_Words" = type { ptr, i64 }
%"class.google::LogMessageFatal" = type { %"class.google::LogMessage" }
%"class.google::LogMessage" = type { ptr, ptr, %"struct.google::LogMessageTime" }
%"struct.google::LogMessageTime" = type { %struct.tm, %"class.std::chrono::time_point", %"class.std::chrono::duration.0", %"class.std::chrono::duration.1" }
%struct.tm = type { i32, i32, i32, i32, i32, i32, i32, i32, i32, i64, ptr }
%"class.std::chrono::time_point" = type { %"class.std::chrono::duration" }
%"class.std::chrono::duration" = type { i64 }
%"class.std::chrono::duration.0" = type { i64 }
%"class.std::chrono::duration.1" = type { i64 }
%"class.google::NullStream" = type <{ %"class.google::LogMessage::LogStream.base", [3 x i8], [5 x i8], %"class.std::basic_ios" }>
%"class.google::LogMessage::LogStream.base" = type { %"class.std::basic_ostream.base", %"class.google::base_logging::LogStreamBuf", i64, ptr }
%struct.A = type { i8 }

@_ZN3fLB16FLAGS_check_modeE = hidden global i8 0, align 1
@.str.6 = private unnamed_addr constant [112 x i8] c"generated/home/dtcxzyw/WorkSpace/Projects/compilers/llvm-opt-benchmark/bench/glog/glog/src/striplog_unittest.cc\00", align 1
@_ZN3fLB17FLAGS_logtostderrE = external global i8, align 1
@.str.8 = private unnamed_addr constant [4 x i8] c"%s\0A\00", align 1
@.str.9 = private unnamed_addr constant [4 x i8] c"opt\00", align 1
@.str.10 = private unnamed_addr constant [17 x i8] c"TESTMESSAGE INFO\00", align 1
@.str.11 = private unnamed_addr constant [10 x i8] c"something\00", align 1
@.str.12 = private unnamed_addr constant [20 x i8] c"TESTMESSAGE WARNING\00", align 1
@.str.13 = private unnamed_addr constant [18 x i8] c"TESTMESSAGE ERROR\00", align 1
@.str.14 = private unnamed_addr constant [17 x i8] c"TESTMESSAGE COND\00", align 1
@.str.15 = private unnamed_addr constant [18 x i8] c"TESTMESSAGE FATAL\00", align 1

; Function Attrs: mustprogress nounwind uwtable
define linkonce_odr hidden noundef nonnull align 8 dereferenceable(91) ptr @_ZN6googlelsI1AEERNS_10NullStreamES3_RKT_(ptr noundef nonnull align 8 dereferenceable(91) %0, ptr noundef nonnull align 1 dereferenceable(1) %1) #2 comdat {
  %3 = alloca ptr, align 8
  %4 = alloca ptr, align 8
  store ptr %0, ptr %3, align 8
  store ptr %1, ptr %4, align 8
  %5 = load ptr, ptr %3, align 8
  ret ptr %5
}

; Function Attrs: mustprogress nounwind uwtable
define linkonce_odr hidden noundef nonnull align 8 dereferenceable(91) ptr @_ZN6googlelsIcEERNS_10NullStreamES2_RKT_(ptr noundef nonnull align 8 dereferenceable(91) %0, ptr noundef nonnull align 1 dereferenceable(1) %1) #2 comdat {
  %3 = alloca ptr, align 8
  %4 = alloca ptr, align 8
  store ptr %0, ptr %3, align 8
  store ptr %1, ptr %4, align 8
  %5 = load ptr, ptr %3, align 8
  ret ptr %5
}

; Function Attrs: mustprogress nounwind uwtable
define linkonce_odr hidden noundef nonnull align 8 dereferenceable(91) ptr @_ZN6googlelsIA20_cEERNS_10NullStreamES3_RKT_(ptr noundef nonnull align 8 dereferenceable(91) %0, ptr noundef nonnull align 1 dereferenceable(20) %1) #2 comdat {
  %3 = alloca ptr, align 8
  %4 = alloca ptr, align 8
  store ptr %0, ptr %3, align 8
  store ptr %1, ptr %4, align 8
  %5 = load ptr, ptr %3, align 8
  ret ptr %5
}

; Function Attrs: mustprogress nounwind uwtable
define linkonce_odr hidden noundef nonnull align 8 dereferenceable(91) ptr @_ZN6googlelsIA10_cEERNS_10NullStreamES3_RKT_(ptr noundef nonnull align 8 dereferenceable(91) %0, ptr noundef nonnull align 1 dereferenceable(10) %1) #2 comdat {
  %3 = alloca ptr, align 8
  %4 = alloca ptr, align 8
  store ptr %0, ptr %3, align 8
  store ptr %1, ptr %4, align 8
  %5 = load ptr, ptr %3, align 8
  ret ptr %5
}

; Function Attrs: mustprogress nounwind uwtable
define linkonce_odr hidden noundef nonnull align 8 dereferenceable(91) ptr @_ZN6googlelsIiEERNS_10NullStreamES2_RKT_(ptr noundef nonnull align 8 dereferenceable(91) %0, ptr noundef nonnull align 4 dereferenceable(4) %1) #2 comdat {
  %3 = alloca ptr, align 8
  %4 = alloca ptr, align 8
  store ptr %0, ptr %3, align 8
  store ptr %1, ptr %4, align 8
  %5 = load ptr, ptr %3, align 8
  ret ptr %5
}

; Function Attrs: mustprogress nounwind uwtable
define linkonce_odr hidden noundef nonnull align 8 dereferenceable(91) ptr @_ZN6googlelsIA17_cEERNS_10NullStreamES3_RKT_(ptr noundef nonnull align 8 dereferenceable(91) %0, ptr noundef nonnull align 1 dereferenceable(17) %1) #2 comdat {
  %3 = alloca ptr, align 8
  %4 = alloca ptr, align 8
  store ptr %0, ptr %3, align 8
  store ptr %1, ptr %4, align 8
  %5 = load ptr, ptr %3, align 8
  ret ptr %5
}

; Function Attrs: mustprogress norecurse uwtable
define hidden noundef i32 @main(i32 noundef %0, ptr noundef %1) #8 personality ptr @__gxx_personality_v0 {
  %3 = alloca i32, align 4
  %4 = alloca i32, align 4
  %5 = alloca ptr, align 8
  %6 = alloca %"class.google::NullStream", align 8
  %7 = alloca ptr, align 8
  %8 = alloca i32, align 4
  %9 = alloca %"class.google::NullStream", align 8
  %10 = alloca i32, align 4
  %11 = alloca i32, align 4
  %12 = alloca i8, align 1
  %13 = alloca %struct.A, align 1
  %14 = alloca %"class.google::LogMessage", align 8
  %15 = alloca i8, align 1
  %16 = alloca %"class.google::NullStream", align 8
  %17 = alloca i1, align 1
  %18 = alloca %"class.google::LogMessage", align 8
  %19 = alloca i1, align 1
  %20 = alloca %"class.google::LogMessageFatal", align 8
  store i32 0, ptr %3, align 4
  store i32 %0, ptr %4, align 4
  store ptr %1, ptr %5, align 8
  %21 = call ptr @signal(i32 noundef 6, ptr noundef @_ZN12_GLOBAL__N_112handle_abortEi) #12
  store i8 1, ptr @_ZN3fLB17FLAGS_logtostderrE, align 1
  %22 = load ptr, ptr %5, align 8
  %23 = getelementptr inbounds ptr, ptr %22, i64 0
  %24 = load ptr, ptr %23, align 8
  call void @_ZN6google17InitGoogleLoggingEPKc(ptr noundef %24)
  %25 = load i8, ptr @_ZN3fLB16FLAGS_check_modeE, align 1
  %26 = trunc i8 %25 to i1
  br i1 %26, label %27, label %29

27:                                               ; preds = %2
  %28 = call i32 (ptr, ...) @printf(ptr noundef @.str.8, ptr noundef @.str.9)
  ret i32 0

29:                                               ; preds = %2
  call void @_ZN6google10NullStreamC1Ev(ptr noundef nonnull align 8 dereferenceable(91) %6)
  %30 = invoke noundef nonnull align 8 dereferenceable(91) ptr @_ZN6google10NullStream6streamEv(ptr noundef nonnull align 8 dereferenceable(91) %6)
          to label %31 unwind label %78

31:                                               ; preds = %29
  %32 = invoke noundef nonnull align 8 dereferenceable(91) ptr @_ZN6googlelsIA17_cEERNS_10NullStreamES3_RKT_(ptr noundef nonnull align 8 dereferenceable(91) %30, ptr noundef nonnull align 1 dereferenceable(17) @.str.10)
          to label %33 unwind label %78

33:                                               ; preds = %31
  call void @_ZN6google10NullStreamD1Ev(ptr noundef nonnull align 8 dereferenceable(91) %6) #12
  call void @_ZN6google10NullStreamC1Ev(ptr noundef nonnull align 8 dereferenceable(91) %9)
  %34 = invoke noundef nonnull align 8 dereferenceable(91) ptr @_ZN6google10NullStream6streamEv(ptr noundef nonnull align 8 dereferenceable(91) %9)
          to label %35 unwind label %82

35:                                               ; preds = %33
  store i32 2, ptr %10, align 4
  %36 = invoke noundef nonnull align 8 dereferenceable(91) ptr @_ZN6googlelsIiEERNS_10NullStreamES2_RKT_(ptr noundef nonnull align 8 dereferenceable(91) %34, ptr noundef nonnull align 4 dereferenceable(4) %10)
          to label %37 unwind label %82

37:                                               ; preds = %35
  %38 = invoke noundef nonnull align 8 dereferenceable(91) ptr @_ZN6googlelsIA10_cEERNS_10NullStreamES3_RKT_(ptr noundef nonnull align 8 dereferenceable(91) %36, ptr noundef nonnull align 1 dereferenceable(10) @.str.11)
          to label %39 unwind label %82

39:                                               ; preds = %37
  %40 = invoke noundef nonnull align 8 dereferenceable(91) ptr @_ZN6googlelsIA20_cEERNS_10NullStreamES3_RKT_(ptr noundef nonnull align 8 dereferenceable(91) %38, ptr noundef nonnull align 1 dereferenceable(20) @.str.12)
          to label %41 unwind label %82

41:                                               ; preds = %39
  store i32 1, ptr %11, align 4
  %42 = invoke noundef nonnull align 8 dereferenceable(91) ptr @_ZN6googlelsIiEERNS_10NullStreamES2_RKT_(ptr noundef nonnull align 8 dereferenceable(91) %40, ptr noundef nonnull align 4 dereferenceable(4) %11)
          to label %43 unwind label %82

43:                                               ; preds = %41
  store i8 99, ptr %12, align 1
  %44 = invoke noundef nonnull align 8 dereferenceable(91) ptr @_ZN6googlelsIcEERNS_10NullStreamES2_RKT_(ptr noundef nonnull align 8 dereferenceable(91) %42, ptr noundef nonnull align 1 dereferenceable(1) %12)
          to label %45 unwind label %82

45:                                               ; preds = %43
  %46 = invoke noundef nonnull align 8 dereferenceable(91) ptr @_ZN6googlelsI1AEERNS_10NullStreamES3_RKT_(ptr noundef nonnull align 8 dereferenceable(91) %44, ptr noundef nonnull align 1 dereferenceable(1) %13)
          to label %47 unwind label %82

47:                                               ; preds = %45
  %48 = invoke noundef nonnull align 8 dereferenceable(8) ptr @_ZNSolsEPFRSoS_E(ptr noundef nonnull align 8 dereferenceable(8) %46, ptr noundef @_ZSt4endlIcSt11char_traitsIcEERSt13basic_ostreamIT_T0_ES6_)
          to label %49 unwind label %82

49:                                               ; preds = %47
  call void @_ZN6google10NullStreamD1Ev(ptr noundef nonnull align 8 dereferenceable(91) %9) #12
  call void @_ZN6google10LogMessageC1EPKciNS_11LogSeverityE(ptr noundef nonnull align 8 dereferenceable(96) %14, ptr noundef @.str.6, i32 noundef 83, i32 noundef 2)
  %50 = invoke noundef nonnull align 8 dereferenceable(8) ptr @_ZN6google10LogMessage6streamEv(ptr noundef nonnull align 8 dereferenceable(96) %14)
          to label %51 unwind label %86

51:                                               ; preds = %49
  %52 = invoke noundef nonnull align 8 dereferenceable(8) ptr @_ZStlsISt11char_traitsIcEERSt13basic_ostreamIcT_ES5_PKc(ptr noundef nonnull align 8 dereferenceable(8) %50, ptr noundef @.str.13)
          to label %53 unwind label %86

53:                                               ; preds = %51
  call void @_ZN6google10LogMessageD1Ev(ptr noundef nonnull align 8 dereferenceable(96) %14)
  store i8 1, ptr %15, align 1
  %54 = load i8, ptr %15, align 1
  %55 = trunc i8 %54 to i1
  store i1 false, ptr %17, align 1
  store i1 false, ptr %19, align 1
  br i1 %55, label %56, label %59

56:                                               ; preds = %53
  call void @_ZN6google10NullStreamC1Ev(ptr noundef nonnull align 8 dereferenceable(91) %16)
  store i1 true, ptr %17, align 1
  %57 = invoke noundef nonnull align 8 dereferenceable(91) ptr @_ZN6google10NullStream6streamEv(ptr noundef nonnull align 8 dereferenceable(91) %16)
          to label %58 unwind label %91

58:                                               ; preds = %56
  br label %63

59:                                               ; preds = %53
  invoke void @_ZN6google10LogMessageC1EPKciNS_11LogSeverityE(ptr noundef nonnull align 8 dereferenceable(96) %18, ptr noundef @.str.6, i32 noundef 85, i32 noundef 2)
          to label %60 unwind label %91

60:                                               ; preds = %59
  store i1 true, ptr %19, align 1
  %61 = invoke noundef nonnull align 8 dereferenceable(8) ptr @_ZN6google10LogMessage6streamEv(ptr noundef nonnull align 8 dereferenceable(96) %18)
          to label %62 unwind label %95

62:                                               ; preds = %60
  br label %63

63:                                               ; preds = %62, %58
  %64 = phi ptr [ %57, %58 ], [ %61, %62 ]
  %65 = invoke noundef nonnull align 8 dereferenceable(8) ptr @_ZStlsISt11char_traitsIcEERSt13basic_ostreamIcT_ES5_PKc(ptr noundef nonnull align 8 dereferenceable(8) %64, ptr noundef @.str.14)
          to label %66 unwind label %95

66:                                               ; preds = %63
  %67 = load i1, ptr %19, align 1
  br i1 %67, label %68, label %70

68:                                               ; preds = %66
  invoke void @_ZN6google10LogMessageD1Ev(ptr noundef nonnull align 8 dereferenceable(96) %18)
          to label %69 unwind label %91

69:                                               ; preds = %68
  br label %70

70:                                               ; preds = %69, %66
  %71 = load i1, ptr %17, align 1
  br i1 %71, label %72, label %73

72:                                               ; preds = %70
  call void @_ZN6google10NullStreamD1Ev(ptr noundef nonnull align 8 dereferenceable(91) %16) #12
  br label %73

73:                                               ; preds = %72, %70
  call void @_ZN6google15LogMessageFatalC1EPKci(ptr noundef nonnull align 8 dereferenceable(96) %20, ptr noundef @.str.6, i32 noundef 86)
  %74 = invoke noundef nonnull align 8 dereferenceable(8) ptr @_ZN6google10LogMessage6streamEv(ptr noundef nonnull align 8 dereferenceable(96) %20)
          to label %75 unwind label %107

75:                                               ; preds = %73
  %76 = invoke noundef nonnull align 8 dereferenceable(8) ptr @_ZStlsISt11char_traitsIcEERSt13basic_ostreamIcT_ES5_PKc(ptr noundef nonnull align 8 dereferenceable(8) %74, ptr noundef @.str.15)
          to label %77 unwind label %107

77:                                               ; preds = %75
  call void @_ZN6google15LogMessageFatalD1Ev(ptr noundef nonnull align 8 dereferenceable(96) %20) #14
  unreachable

78:                                               ; preds = %31, %29
  %79 = landingpad { ptr, i32 }
          cleanup
  %80 = extractvalue { ptr, i32 } %79, 0
  store ptr %80, ptr %7, align 8
  %81 = extractvalue { ptr, i32 } %79, 1
  store i32 %81, ptr %8, align 4
  call void @_ZN6google10NullStreamD1Ev(ptr noundef nonnull align 8 dereferenceable(91) %6) #12
  br label %113

82:                                               ; preds = %47, %45, %43, %41, %39, %37, %35, %33
  %83 = landingpad { ptr, i32 }
          cleanup
  %84 = extractvalue { ptr, i32 } %83, 0
  store ptr %84, ptr %7, align 8
  %85 = extractvalue { ptr, i32 } %83, 1
  store i32 %85, ptr %8, align 4
  call void @_ZN6google10NullStreamD1Ev(ptr noundef nonnull align 8 dereferenceable(91) %9) #12
  br label %113

86:                                               ; preds = %51, %49
  %87 = landingpad { ptr, i32 }
          cleanup
  %88 = extractvalue { ptr, i32 } %87, 0
  store ptr %88, ptr %7, align 8
  %89 = extractvalue { ptr, i32 } %87, 1
  store i32 %89, ptr %8, align 4
  invoke void @_ZN6google10LogMessageD1Ev(ptr noundef nonnull align 8 dereferenceable(96) %14)
          to label %90 unwind label %118

90:                                               ; preds = %86
  br label %113

91:                                               ; preds = %68, %59, %56
  %92 = landingpad { ptr, i32 }
          cleanup
  %93 = extractvalue { ptr, i32 } %92, 0
  store ptr %93, ptr %7, align 8
  %94 = extractvalue { ptr, i32 } %92, 1
  store i32 %94, ptr %8, align 4
  br label %103

95:                                               ; preds = %63, %60
  %96 = landingpad { ptr, i32 }
          cleanup
  %97 = extractvalue { ptr, i32 } %96, 0
  store ptr %97, ptr %7, align 8
  %98 = extractvalue { ptr, i32 } %96, 1
  store i32 %98, ptr %8, align 4
  %99 = load i1, ptr %19, align 1
  br i1 %99, label %100, label %102

100:                                              ; preds = %95
  invoke void @_ZN6google10LogMessageD1Ev(ptr noundef nonnull align 8 dereferenceable(96) %18)
          to label %101 unwind label %118

101:                                              ; preds = %100
  br label %102

102:                                              ; preds = %101, %95
  br label %103

103:                                              ; preds = %102, %91
  %104 = load i1, ptr %17, align 1
  br i1 %104, label %105, label %106

105:                                              ; preds = %103
  call void @_ZN6google10NullStreamD1Ev(ptr noundef nonnull align 8 dereferenceable(91) %16) #12
  br label %106

106:                                              ; preds = %105, %103
  br label %113

107:                                              ; preds = %75, %73
  %108 = landingpad { ptr, i32 }
          cleanup
  %109 = extractvalue { ptr, i32 } %108, 0
  store ptr %109, ptr %7, align 8
  %110 = extractvalue { ptr, i32 } %108, 1
  store i32 %110, ptr %8, align 4
  invoke void @_ZN6google15LogMessageFatalD1Ev(ptr noundef nonnull align 8 dereferenceable(96) %20) #14
          to label %111 unwind label %118

111:                                              ; preds = %107
  unreachable

112:                                              ; No predecessors!
  br label %113

113:                                              ; preds = %112, %106, %90, %82, %78
  %114 = load ptr, ptr %7, align 8
  %115 = load i32, ptr %8, align 4
  %116 = insertvalue { ptr, i32 } poison, ptr %114, 0
  %117 = insertvalue { ptr, i32 } %116, i32 %115, 1
  resume { ptr, i32 } %117

118:                                              ; preds = %107, %100, %86
  %119 = landingpad { ptr, i32 }
          catch ptr null
  %120 = extractvalue { ptr, i32 } %119, 0
  call void @__clang_call_terminate(ptr %120) #15
  unreachable
}