; Function Attrs: mustprogress norecurse uwtable
define hidden noundef i32 @main(i32 noundef %0, ptr nocapture noundef readonly %1) local_unnamed_addr #9 personality ptr @__gxx_personality_v0 {
  %3 = alloca %"class.google::NullStream", align 8
  %4 = alloca %"class.google::NullStream", align 8
  %5 = alloca %"class.google::LogMessage", align 8
  %6 = alloca %"class.google::NullStream", align 8
  %7 = alloca %"class.google::LogMessageFatal", align 8
  %8 = tail call ptr @signal(i32 noundef 6, ptr noundef nonnull @_ZN12_GLOBAL__N_112handle_abortEi) #16
  store i8 1, ptr @_ZN3fLB17FLAGS_logtostderrE, align 1
  %9 = load ptr, ptr %1, align 8
  tail call void @_ZN6google17InitGoogleLoggingEPKc(ptr noundef %9)
  %10 = load i8, ptr @_ZN3fLB16FLAGS_check_modeE, align 1
  %11 = and i8 %10, 1
  %.not = icmp eq i8 %11, 0
  br i1 %.not, label %13, label %12

12:                                               ; preds = %2
  %puts = tail call i32 @puts(ptr nonnull dereferenceable(1) @.str.9)
  ret i32 0

13:                                               ; preds = %2
  call void @_ZN6google10NullStreamC1Ev(ptr noundef nonnull align 8 dereferenceable(91) %3)
  %14 = invoke noundef nonnull align 8 dereferenceable(91) ptr @_ZN6google10NullStream6streamEv(ptr noundef nonnull align 8 dereferenceable(91) %3)
          to label %15 unwind label %32

15:                                               ; preds = %13
  call void @_ZN6google10NullStreamD1Ev(ptr noundef nonnull align 8 dereferenceable(91) %3) #16
  call void @_ZN6google10NullStreamC1Ev(ptr noundef nonnull align 8 dereferenceable(91) %4)
  %16 = invoke noundef nonnull align 8 dereferenceable(91) ptr @_ZN6google10NullStream6streamEv(ptr noundef nonnull align 8 dereferenceable(91) %4)
          to label %17 unwind label %34

17:                                               ; preds = %15
  %18 = invoke noundef nonnull align 8 dereferenceable(8) ptr @_ZNSolsEPFRSoS_E(ptr noundef nonnull align 8 dereferenceable(8) %16, ptr noundef nonnull @_ZSt4endlIcSt11char_traitsIcEERSt13basic_ostreamIT_T0_ES6_)
          to label %19 unwind label %34

19:                                               ; preds = %17
  call void @_ZN6google10NullStreamD1Ev(ptr noundef nonnull align 8 dereferenceable(91) %4) #16
  call void @_ZN6google10LogMessageC1EPKciNS_11LogSeverityE(ptr noundef nonnull align 8 dereferenceable(96) %5, ptr noundef nonnull @.str.6, i32 noundef 83, i32 noundef 2)
  %20 = invoke noundef nonnull align 8 dereferenceable(8) ptr @_ZN6google10LogMessage6streamEv(ptr noundef nonnull align 8 dereferenceable(96) %5)
          to label %21 unwind label %36

21:                                               ; preds = %19
  %22 = invoke noundef nonnull align 8 dereferenceable(8) ptr @_ZStlsISt11char_traitsIcEERSt13basic_ostreamIcT_ES5_PKc(ptr noundef nonnull align 8 dereferenceable(8) %20, ptr noundef nonnull @.str.13)
          to label %23 unwind label %36

23:                                               ; preds = %21
  call void @_ZN6google10LogMessageD1Ev(ptr noundef nonnull align 8 dereferenceable(96) %5)
  call void @_ZN6google10NullStreamC1Ev(ptr noundef nonnull align 8 dereferenceable(91) %6)
  %24 = invoke noundef nonnull align 8 dereferenceable(91) ptr @_ZN6google10NullStream6streamEv(ptr noundef nonnull align 8 dereferenceable(91) %6)
          to label %25 unwind label %38

25:                                               ; preds = %23
  %26 = invoke noundef nonnull align 8 dereferenceable(8) ptr @_ZStlsISt11char_traitsIcEERSt13basic_ostreamIcT_ES5_PKc(ptr noundef nonnull align 8 dereferenceable(8) %24, ptr noundef nonnull @.str.14)
          to label %27 unwind label %40

27:                                               ; preds = %25
  call void @_ZN6google10NullStreamD1Ev(ptr noundef nonnull align 8 dereferenceable(91) %6) #16
  call void @_ZN6google15LogMessageFatalC1EPKci(ptr noundef nonnull align 8 dereferenceable(96) %7, ptr noundef nonnull @.str.6, i32 noundef 86)
  %28 = invoke noundef nonnull align 8 dereferenceable(8) ptr @_ZN6google10LogMessage6streamEv(ptr noundef nonnull align 8 dereferenceable(96) %7)
          to label %29 unwind label %42

29:                                               ; preds = %27
  %30 = invoke noundef nonnull align 8 dereferenceable(8) ptr @_ZStlsISt11char_traitsIcEERSt13basic_ostreamIcT_ES5_PKc(ptr noundef nonnull align 8 dereferenceable(8) %28, ptr noundef nonnull @.str.15)
          to label %31 unwind label %42

31:                                               ; preds = %29
  call void @_ZN6google15LogMessageFatalD1Ev(ptr noundef nonnull align 8 dereferenceable(96) %7) #17
  unreachable

32:                                               ; preds = %13
  %33 = landingpad { ptr, i32 }
          cleanup
  br label %.sink.split

34:                                               ; preds = %17, %15
  %35 = landingpad { ptr, i32 }
          cleanup
  br label %.sink.split

36:                                               ; preds = %21, %19
  %37 = landingpad { ptr, i32 }
          cleanup
  invoke void @_ZN6google10LogMessageD1Ev(ptr noundef nonnull align 8 dereferenceable(96) %5)
          to label %45 unwind label %46

38:                                               ; preds = %23
  %39 = landingpad { ptr, i32 }
          cleanup
  br label %.sink.split

40:                                               ; preds = %25
  %41 = landingpad { ptr, i32 }
          cleanup
  br label %.sink.split

42:                                               ; preds = %29, %27
  %43 = landingpad { ptr, i32 }
          cleanup
  invoke void @_ZN6google15LogMessageFatalD1Ev(ptr noundef nonnull align 8 dereferenceable(96) %7) #17
          to label %44 unwind label %46

44:                                               ; preds = %42
  unreachable

.sink.split:                                      ; preds = %40, %38, %32, %34
  %.sink = phi ptr [ %4, %34 ], [ %3, %32 ], [ %6, %38 ], [ %6, %40 ]
  %.pn.pn.ph = phi { ptr, i32 } [ %35, %34 ], [ %33, %32 ], [ %39, %38 ], [ %41, %40 ]
  call void @_ZN6google10NullStreamD1Ev(ptr noundef nonnull align 8 dereferenceable(91) %.sink) #16
  br label %45

45:                                               ; preds = %.sink.split, %36
  %.pn.pn = phi { ptr, i32 } [ %37, %36 ], [ %.pn.pn.ph, %.sink.split ]
  resume { ptr, i32 } %.pn.pn

46:                                               ; preds = %42, %36
  %47 = landingpad { ptr, i32 }
          catch ptr null
  %48 = extractvalue { ptr, i32 } %47, 0
  call void @__clang_call_terminate(ptr %48) #18
  unreachable
}